(lp0
(lp1
I5
aI10
aI15
aI20
aI30
aI40
aI50
aI80
aa(lp2
F0.93048128342246
aF0.9516539440203562
aF0.921832884097035
aF0.6623376623376623
aF0.6195286195286195
aF0.5422535211267606
aF0.4404332129963899
aF0.2548262548262548
aa.