(lp0
S'poi'
p1
aS'bonus'
p2
aS'deferral_payments'
p3
aS'deferred_income'
p4
aS'director_fees'
p5
aS'exercised_stock_options'
p6
aS'expenses'
p7
aS'from_messages'
p8
aS'from_poi_to_this_person'
p9
aS'from_this_person_to_poi'
p10
aS'loan_advances'
p11
aS'long_term_incentive'
p12
aS'other'
p13
aS'restricted_stock'
p14
aS'restricted_stock_deferred'
p15
aS'salary'
p16
aS'shared_receipt_with_poi'
p17
aS'to_messages'
p18
aS'total_payments'
p19
aS'total_stock_value'
p20
aS'all_messages'
p21
aS'all_poi_messages'
p22
aS'poi_to_all_ratio'
p23
aS'total_payments_log'
p24
aS'salary_log'
p25
aS'bonus_log'
p26
aS'total_stock_value_log'
p27
aS'exercised_stock_options_log'
p28
aS'loan_advances_log'
p29
aS'director_fees_log'
p30
aS'restricted_stock_log'
p31
aS'deferral_payments_log'
p32
aS'total_payments_sqrt'
p33
aS'salary_sqrt'
p34
aS'bonus_sqrt'
p35
aS'total_stock_value_sqrt'
p36
aS'exercised_stock_options_sqrt'
p37
aS'loan_advances_sqrt'
p38
aS'director_fees_sqrt'
p39
aS'restricted_stock_sqrt'
p40
aS'deferral_payments_sqrt'
p41
aS'total_payments_squared'
p42
aS'salary_squared'
p43
aS'bonus_squared'
p44
aS'total_stock_value_squared'
p45
aS'exercised_stock_options_squared'
p46
aS'loan_advances_squared'
p47
aS'director_fees_squared'
p48
aS'restricted_stock_squared'
p49
aS'deferral_payments_sqrd'
p50
aL0L
aL1L
aL2L
aL3L
aL4L
aL5L
aL6L
aL7L
aL8L
aL9L
aL10L
aL11L
aL12L
aL13L
aL14L
aL15L
aL16L
aL17L
aL18L
aL19L
aL20L
aL21L
aL22L
aL23L
aL24L
aL25L
aL26L
aL27L
aL28L
aL29L
aL30L
aL31L
aL32L
aL33L
aL34L
aL35L
aL36L
aL37L
aL38L
aL39L
aL40L
aL41L
aL42L
aL43L
aL44L
aL45L
aL46L
aL47L
aL48L
aL49L
aL50L
aL51L
aL52L
aL53L
aL54L
aL55L
aL56L
aL57L
aL58L
aL59L
aL60L
aL61L
aL62L
aL63L
aL64L
aL65L
aL66L
aL67L
a.